target datalayout = "e-m:e-p270:32:32-p271:32:32-p272:64:64-i64:64-i128:128-f80:128-n8:16:32:64-S128"
target triple = "x86_64-pc-linux-gnu"

%struct.H5C_log_info_t = type { i8, i8, ptr, ptr }
%struct.H5C_log_json_udata_t = type { ptr, ptr }

@H5C_init_g = external global i8, align 1
@H5_libterm_g = external global i8, align 1
@.str = private unnamed_addr constant [105 x i8] c"generated/home/dtcxzyw/WorkSpace/Projects/compilers/llvm-opt-benchmark/bench/hdf5/hdf5/src/H5Clog_json.c\00", align 1
@__func__.H5C__log_json_set_up = private unnamed_addr constant [21 x i8] c"H5C__log_json_set_up\00", align 1
@H5E_CACHE_g = external global i64, align 8
@H5E_CANTALLOC_g = external global i64, align 8
@.str.1 = private unnamed_addr constant [25 x i8] c"memory allocation failed\00", align 1
@.str.2 = private unnamed_addr constant [57 x i8] c"can't allocate memory for mdc log file name manipulation\00", align 1
@.str.3 = private unnamed_addr constant [3 x i8] c"%s\00", align 1
@.str.4 = private unnamed_addr constant [11 x i8] c"RANK_%d.%s\00", align 1
@.str.5 = private unnamed_addr constant [2 x i8] c"w\00", align 1
@H5E_LOGGING_g = external global i64, align 8
@.str.6 = private unnamed_addr constant [26 x i8] c"can't create mdc log file\00", align 1

; Function Attrs: nounwind uwtable
define i32 @H5C__log_json_set_up(ptr noundef %0, ptr noundef %1, i32 noundef %2) #0 {
  %4 = alloca ptr, align 8
  %5 = alloca ptr, align 8
  %6 = alloca i32, align 4
  %7 = alloca ptr, align 8
  %8 = alloca ptr, align 8
  %9 = alloca i64, align 8
  %10 = alloca i32, align 4
  %11 = alloca i8, align 1
  store ptr %0, ptr %4, align 8, !tbaa !3
  store ptr %1, ptr %5, align 8, !tbaa !8
  store i32 %2, ptr %6, align 4, !tbaa !10
  call void @llvm.lifetime.start.p0(i64 8, ptr %7) #8
  store ptr null, ptr %7, align 8, !tbaa !12
  call void @llvm.lifetime.start.p0(i64 8, ptr %8) #8
  store ptr null, ptr %8, align 8, !tbaa !8
  call void @llvm.lifetime.start.p0(i64 8, ptr %9) #8
  call void @llvm.lifetime.start.p0(i64 4, ptr %10) #8
  store i32 0, ptr %10, align 4, !tbaa !10
  call void @llvm.lifetime.start.p0(i64 1, ptr %11) #8
  store i8 0, ptr %11, align 1, !tbaa !14
  %12 = load i8, ptr @H5C_init_g, align 1, !tbaa !14, !range !16, !noundef !17
  %13 = trunc i8 %12 to i1
  br i1 %13, label %18, label %14

14:                                               ; preds = %3
  %15 = load i8, ptr @H5_libterm_g, align 1, !tbaa !14, !range !16, !noundef !17
  %16 = trunc i8 %15 to i1
  %17 = xor i1 %16, true
  br label %18

18:                                               ; preds = %14, %3
  %19 = phi i1 [ true, %3 ], [ %17, %14 ]
  %20 = xor i1 %19, true
  %21 = xor i1 %20, true
  %22 = zext i1 %21 to i32
  %23 = sext i32 %22 to i64
  %24 = call i64 @llvm.expect.i64(i64 %23, i64 1)
  %25 = icmp ne i64 %24, 0
  br i1 %25, label %26, label %184

26:                                               ; preds = %18
  %27 = load ptr, ptr %4, align 8, !tbaa !3
  %28 = getelementptr inbounds nuw %struct.H5C_log_info_t, ptr %27, i32 0, i32 2
  store ptr @H5C_json_log_class_g, ptr %28, align 8, !tbaa !18
  %29 = call noalias ptr @calloc(i64 noundef 1, i64 noundef 16) #9
  %30 = load ptr, ptr %4, align 8, !tbaa !3
  %31 = getelementptr inbounds nuw %struct.H5C_log_info_t, ptr %30, i32 0, i32 3
  store ptr %29, ptr %31, align 8, !tbaa !21
  %32 = icmp eq ptr null, %29
  br i1 %32, label %33, label %52

33:                                               ; preds = %26
  br label %34

34:                                               ; preds = %33
  br label %35

35:                                               ; preds = %34
  br label %36

36:                                               ; preds = %35
  %37 = load i64, ptr @H5E_CACHE_g, align 8, !tbaa !22
  %38 = load i64, ptr @H5E_CANTALLOC_g, align 8, !tbaa !22
  %39 = call i32 (ptr, ptr, i32, i64, i64, ptr, ...) @H5E_printf_stack(ptr noundef @.str, ptr noundef @__func__.H5C__log_json_set_up, i32 noundef 220, i64 noundef %37, i64 noundef %38, ptr noundef @.str.1)
  br label %40

40:                                               ; preds = %36
  br label %41

41:                                               ; preds = %40
  store i8 1, ptr %11, align 1, !tbaa !14
  %42 = load i8, ptr %11, align 1, !tbaa !14, !range !16, !noundef !17
  %43 = trunc i8 %42 to i1
  %44 = zext i1 %43 to i8
  store i8 %44, ptr %11, align 1, !tbaa !14
  br label %45

45:                                               ; preds = %41
  br label %46

46:                                               ; preds = %45
  br label %47

47:                                               ; preds = %46
  store i32 -1, ptr %10, align 4, !tbaa !10
  br label %150

48:                                               ; No predecessors!
  br label %49

49:                                               ; preds = %48
  br label %50

50:                                               ; preds = %49
  br label %51

51:                                               ; preds = %50
  br label %52

52:                                               ; preds = %51, %26
  %53 = load ptr, ptr %4, align 8, !tbaa !3
  %54 = getelementptr inbounds nuw %struct.H5C_log_info_t, ptr %53, i32 0, i32 3
  %55 = load ptr, ptr %54, align 8, !tbaa !21
  store ptr %55, ptr %7, align 8, !tbaa !12
  %56 = call noalias ptr @calloc(i64 noundef 1, i64 noundef 1024) #9
  %57 = load ptr, ptr %7, align 8, !tbaa !12
  %58 = getelementptr inbounds nuw %struct.H5C_log_json_udata_t, ptr %57, i32 0, i32 1
  store ptr %56, ptr %58, align 8, !tbaa !24
  %59 = icmp eq ptr null, %56
  br i1 %59, label %60, label %79

60:                                               ; preds = %52
  br label %61

61:                                               ; preds = %60
  br label %62

62:                                               ; preds = %61
  br label %63

63:                                               ; preds = %62
  %64 = load i64, ptr @H5E_CACHE_g, align 8, !tbaa !22
  %65 = load i64, ptr @H5E_CANTALLOC_g, align 8, !tbaa !22
  %66 = call i32 (ptr, ptr, i32, i64, i64, ptr, ...) @H5E_printf_stack(ptr noundef @.str, ptr noundef @__func__.H5C__log_json_set_up, i32 noundef 225, i64 noundef %64, i64 noundef %65, ptr noundef @.str.1)
  br label %67

67:                                               ; preds = %63
  br label %68

68:                                               ; preds = %67
  store i8 1, ptr %11, align 1, !tbaa !14
  %69 = load i8, ptr %11, align 1, !tbaa !14, !range !16, !noundef !17
  %70 = trunc i8 %69 to i1
  %71 = zext i1 %70 to i8
  store i8 %71, ptr %11, align 1, !tbaa !14
  br label %72

72:                                               ; preds = %68
  br label %73

73:                                               ; preds = %72
  br label %74

74:                                               ; preds = %73
  store i32 -1, ptr %10, align 4, !tbaa !10
  br label %150

75:                                               ; No predecessors!
  br label %76

76:                                               ; preds = %75
  br label %77

77:                                               ; preds = %76
  br label %78

78:                                               ; preds = %77
  br label %79

79:                                               ; preds = %78, %52
  %80 = load ptr, ptr %5, align 8, !tbaa !8
  %81 = call i64 @strlen(ptr noundef %80) #10
  %82 = add i64 45, %81
  %83 = add i64 %82, 1
  store i64 %83, ptr %9, align 8, !tbaa !22
  %84 = load i64, ptr %9, align 8, !tbaa !22
  %85 = mul i64 %84, 1
  %86 = call noalias ptr @calloc(i64 noundef 1, i64 noundef %85) #9
  store ptr %86, ptr %8, align 8, !tbaa !8
  %87 = icmp eq ptr null, %86
  br i1 %87, label %88, label %107

88:                                               ; preds = %79
  br label %89

89:                                               ; preds = %88
  br label %90

90:                                               ; preds = %89
  br label %91

91:                                               ; preds = %90
  %92 = load i64, ptr @H5E_CACHE_g, align 8, !tbaa !22
  %93 = load i64, ptr @H5E_CANTALLOC_g, align 8, !tbaa !22
  %94 = call i32 (ptr, ptr, i32, i64, i64, ptr, ...) @H5E_printf_stack(ptr noundef @.str, ptr noundef @__func__.H5C__log_json_set_up, i32 noundef 237, i64 noundef %92, i64 noundef %93, ptr noundef @.str.2)
  br label %95

95:                                               ; preds = %91
  br label %96

96:                                               ; preds = %95
  store i8 1, ptr %11, align 1, !tbaa !14
  %97 = load i8, ptr %11, align 1, !tbaa !14, !range !16, !noundef !17
  %98 = trunc i8 %97 to i1
  %99 = zext i1 %98 to i8
  store i8 %99, ptr %11, align 1, !tbaa !14
  br label %100

100:                                              ; preds = %96
  br label %101

101:                                              ; preds = %100
  br label %102

102:                                              ; preds = %101
  store i32 -1, ptr %10, align 4, !tbaa !10
  br label %150

103:                                              ; No predecessors!
  br label %104

104:                                              ; preds = %103
  br label %105

105:                                              ; preds = %104
  br label %106

106:                                              ; preds = %105
  br label %107

107:                                              ; preds = %106, %79
  %108 = load i32, ptr %6, align 4, !tbaa !10
  %109 = icmp eq i32 -1, %108
  br i1 %109, label %110, label %115

110:                                              ; preds = %107
  %111 = load ptr, ptr %8, align 8, !tbaa !8
  %112 = load i64, ptr %9, align 8, !tbaa !22
  %113 = load ptr, ptr %5, align 8, !tbaa !8
  %114 = call i32 (ptr, i64, ptr, ...) @snprintf(ptr noundef %111, i64 noundef %112, ptr noundef @.str.3, ptr noundef %113) #8
  br label %121

115:                                              ; preds = %107
  %116 = load ptr, ptr %8, align 8, !tbaa !8
  %117 = load i64, ptr %9, align 8, !tbaa !22
  %118 = load i32, ptr %6, align 4, !tbaa !10
  %119 = load ptr, ptr %5, align 8, !tbaa !8
  %120 = call i32 (ptr, i64, ptr, ...) @snprintf(ptr noundef %116, i64 noundef %117, ptr noundef @.str.4, i32 noundef %118, ptr noundef %119) #8
  br label %121

121:                                              ; preds = %115, %110
  %122 = load ptr, ptr %8, align 8, !tbaa !8
  %123 = call noalias ptr @fopen64(ptr noundef %122, ptr noundef @.str.5)
  %124 = load ptr, ptr %7, align 8, !tbaa !12
  %125 = getelementptr inbounds nuw %struct.H5C_log_json_udata_t, ptr %124, i32 0, i32 0
  store ptr %123, ptr %125, align 8, !tbaa !27
  %126 = icmp eq ptr null, %123
  br i1 %126, label %127, label %146

127:                                              ; preds = %121
  br label %128

128:                                              ; preds = %127
  br label %129

129:                                              ; preds = %128
  br label %130

130:                                              ; preds = %129
  %131 = load i64, ptr @H5E_CACHE_g, align 8, !tbaa !22
  %132 = load i64, ptr @H5E_LOGGING_g, align 8, !tbaa !22
  %133 = call i32 (ptr, ptr, i32, i64, i64, ptr, ...) @H5E_printf_stack(ptr noundef @.str, ptr noundef @__func__.H5C__log_json_set_up, i32 noundef 247, i64 noundef %131, i64 noundef %132, ptr noundef @.str.6)
  br label %134

134:                                              ; preds = %130
  br label %135

135:                                              ; preds = %134
  store i8 1, ptr %11, align 1, !tbaa !14
  %136 = load i8, ptr %11, align 1, !tbaa !14, !range !16, !noundef !17
  %137 = trunc i8 %136 to i1
  %138 = zext i1 %137 to i8
  store i8 %138, ptr %11, align 1, !tbaa !14
  br label %139

139:                                              ; preds = %135
  br label %140

140:                                              ; preds = %139
  br label %141

141:                                              ; preds = %140
  store i32 -1, ptr %10, align 4, !tbaa !10
  br label %150

142:                                              ; No predecessors!
  br label %143

143:                                              ; preds = %142
  br label %144

144:                                              ; preds = %143
  br label %145

145:                                              ; preds = %144
  br label %146

146:                                              ; preds = %145, %121
  %147 = load ptr, ptr %7, align 8, !tbaa !12
  %148 = getelementptr inbounds nuw %struct.H5C_log_json_udata_t, ptr %147, i32 0, i32 0
  %149 = load ptr, ptr %148, align 8, !tbaa !27
  call void @setbuf(ptr noundef %149, ptr noundef null) #8
  br label %150

150:                                              ; preds = %146, %141, %102, %74, %47
  %151 = load ptr, ptr %8, align 8, !tbaa !8
  %152 = icmp ne ptr %151, null
  br i1 %152, label %153, label %156

153:                                              ; preds = %150
  %154 = load ptr, ptr %8, align 8, !tbaa !8
  %155 = call ptr @H5MM_xfree(ptr noundef %154)
  br label %156

156:                                              ; preds = %153, %150
  %157 = load i32, ptr %10, align 4, !tbaa !10
  %158 = icmp eq i32 -1, %157
  br i1 %158, label %159, label %183

159:                                              ; preds = %156
  %160 = load ptr, ptr %7, align 8, !tbaa !12
  %161 = icmp ne ptr %160, null
  br i1 %161, label %162, label %172

162:                                              ; preds = %159
  %163 = load ptr, ptr %7, align 8, !tbaa !12
  %164 = getelementptr inbounds nuw %struct.H5C_log_json_udata_t, ptr %163, i32 0, i32 1
  %165 = load ptr, ptr %164, align 8, !tbaa !24
  %166 = icmp ne ptr %165, null
  br i1 %166, label %167, label %172

167:                                              ; preds = %162
  %168 = load ptr, ptr %7, align 8, !tbaa !12
  %169 = getelementptr inbounds nuw %struct.H5C_log_json_udata_t, ptr %168, i32 0, i32 1
  %170 = load ptr, ptr %169, align 8, !tbaa !24
  %171 = call ptr @H5MM_xfree(ptr noundef %170)
  br label %172

172:                                              ; preds = %167, %162, %159
  %173 = load ptr, ptr %7, align 8, !tbaa !12
  %174 = icmp ne ptr %173, null
  br i1 %174, label %175, label %178

175:                                              ; preds = %172
  %176 = load ptr, ptr %7, align 8, !tbaa !12
  %177 = call ptr @H5MM_xfree(ptr noundef %176)
  br label %178

178:                                              ; preds = %175, %172
  %179 = load ptr, ptr %4, align 8, !tbaa !3
  %180 = getelementptr inbounds nuw %struct.H5C_log_info_t, ptr %179, i32 0, i32 3
  store ptr null, ptr %180, align 8, !tbaa !21
  %181 = load ptr, ptr %4, align 8, !tbaa !3
  %182 = getelementptr inbounds nuw %struct.H5C_log_info_t, ptr %181, i32 0, i32 2
  store ptr null, ptr %182, align 8, !tbaa !18
  br label %183

183:                                              ; preds = %178, %156
  br label %184

184:                                              ; preds = %183, %18
  %185 = load i32, ptr %10, align 4, !tbaa !10
  call void @llvm.lifetime.end.p0(i64 1, ptr %11) #8
  call void @llvm.lifetime.end.p0(i64 4, ptr %10) #8
  call void @llvm.lifetime.end.p0(i64 8, ptr %9) #8
  call void @llvm.lifetime.end.p0(i64 8, ptr %8) #8
  call void @llvm.lifetime.end.p0(i64 8, ptr %7) #8
  ret i32 %185
}